target datalayout = "e-m:e-p270:32:32-p271:32:32-p272:64:64-i64:64-i128:128-f80:128-n8:16:32:64-S128"
target triple = "x86_64-pc-linux-gnu"

%"class.std::__cxx11::basic_string" = type { %"struct.std::__cxx11::basic_string<char>::_Alloc_hider", i64, %union.anon }
%"struct.std::__cxx11::basic_string<char>::_Alloc_hider" = type { ptr }
%union.anon = type { i64, [8 x i8] }

@.str.2 = private unnamed_addr constant [3 x i8] c"/\\\00", align 1

; Function Attrs: mustprogress uwtable
define void @_ZN5draco11GetFullPathERKNSt7__cxx1112basic_stringIcSt11char_traitsIcESaIcEEES7_(ptr dead_on_unwind noalias writable sret(%"class.std::__cxx11::basic_string") align 8 %0, ptr noundef nonnull align 8 dereferenceable(32) %1, ptr noundef nonnull align 8 dereferenceable(32) %2) #4 personality ptr @__gxx_personality_v0 {
  %4 = alloca ptr, align 8
  %5 = alloca ptr, align 8
  %6 = alloca ptr, align 8
  %7 = alloca i64, align 8
  %8 = alloca i1, align 1
  %9 = alloca %"class.std::__cxx11::basic_string", align 8
  %10 = alloca ptr, align 8
  %11 = alloca i32, align 4
  store ptr %0, ptr %4, align 8
  store ptr %1, ptr %5, align 8
  store ptr %2, ptr %6, align 8
  %12 = load ptr, ptr %6, align 8
  %13 = call noundef i64 @_ZNKSt7__cxx1112basic_stringIcSt11char_traitsIcESaIcEE12find_last_ofEPKcm(ptr noundef nonnull align 8 dereferenceable(32) %12, ptr noundef @.str.2, i64 noundef -1) #3
  store i64 %13, ptr %7, align 8
  store i1 false, ptr %8, align 1
  call void @_ZNSt7__cxx1112basic_stringIcSt11char_traitsIcESaIcEEC1Ev(ptr noundef nonnull align 8 dereferenceable(32) %0) #3
  %14 = load i64, ptr %7, align 8
  %15 = icmp ne i64 %14, -1
  br i1 %15, label %16, label %26

16:                                               ; preds = %3
  %17 = load ptr, ptr %6, align 8
  %18 = load i64, ptr %7, align 8
  %19 = add i64 %18, 1
  invoke void @_ZNKSt7__cxx1112basic_stringIcSt11char_traitsIcESaIcEE6substrEmm(ptr dead_on_unwind writable sret(%"class.std::__cxx11::basic_string") align 8 %9, ptr noundef nonnull align 8 dereferenceable(32) %17, i64 noundef 0, i64 noundef %19)
          to label %20 unwind label %22

20:                                               ; preds = %16
  %21 = call noundef nonnull align 8 dereferenceable(32) ptr @_ZNSt7__cxx1112basic_stringIcSt11char_traitsIcESaIcEEaSEOS4_(ptr noundef nonnull align 8 dereferenceable(32) %0, ptr noundef nonnull align 8 dereferenceable(32) %9) #3
  call void @_ZNSt7__cxx1112basic_stringIcSt11char_traitsIcESaIcEED1Ev(ptr noundef nonnull align 8 dereferenceable(32) %9) #3
  br label %26

22:                                               ; preds = %26, %16
  %23 = landingpad { ptr, i32 }
          cleanup
  %24 = extractvalue { ptr, i32 } %23, 0
  store ptr %24, ptr %10, align 8
  %25 = extractvalue { ptr, i32 } %23, 1
  store i32 %25, ptr %11, align 4
  call void @_ZNSt7__cxx1112basic_stringIcSt11char_traitsIcESaIcEED1Ev(ptr noundef nonnull align 8 dereferenceable(32) %0) #3
  br label %33

26:                                               ; preds = %20, %3
  %27 = load ptr, ptr %5, align 8
  %28 = invoke noundef nonnull align 8 dereferenceable(32) ptr @_ZNSt7__cxx1112basic_stringIcSt11char_traitsIcESaIcEEpLERKS4_(ptr noundef nonnull align 8 dereferenceable(32) %0, ptr noundef nonnull align 8 dereferenceable(32) %27)
          to label %29 unwind label %22

29:                                               ; preds = %26
  store i1 true, ptr %8, align 1
  %30 = load i1, ptr %8, align 1
  br i1 %30, label %32, label %31

31:                                               ; preds = %29
  call void @_ZNSt7__cxx1112basic_stringIcSt11char_traitsIcESaIcEED1Ev(ptr noundef nonnull align 8 dereferenceable(32) %0) #3
  br label %32

32:                                               ; preds = %31, %29
  ret void

33:                                               ; preds = %22
  %34 = load ptr, ptr %10, align 8
  %35 = load i32, ptr %11, align 4
  %36 = insertvalue { ptr, i32 } poison, ptr %34, 0
  %37 = insertvalue { ptr, i32 } %36, i32 %35, 1
  resume { ptr, i32 } %37
}